; Function Attrs: mustprogress nounwind uwtable
define hidden noundef zeroext i1 @_ZN13InstanceKlass18remove_osr_nmethodEP7nmethod(ptr nocapture noundef nonnull align 8 dereferenceable(464) %0, ptr noundef %1) local_unnamed_addr #0 align 2 {
  %3 = load ptr, ptr @NMethodState_lock, align 8
  %4 = tail call noundef zeroext i1 @_ZNK5Mutex13owned_by_selfEv(ptr noundef nonnull align 8 dereferenceable(104) %3) #26
  br i1 %4, label %_ZN22ConditionalMutexLockerC2EP5MutexbNS0_18SafepointCheckFlagE.exit, label %5

5:                                                ; preds = %2
  tail call void @_ZN5Mutex28lock_without_safepoint_checkEv(ptr noundef nonnull align 8 dereferenceable(104) %3) #26
  br label %_ZN22ConditionalMutexLockerC2EP5MutexbNS0_18SafepointCheckFlagE.exit

_ZN22ConditionalMutexLockerC2EP5MutexbNS0_18SafepointCheckFlagE.exit: ; preds = %2, %5
  %6 = getelementptr inbounds i8, ptr %0, i64 360
  %7 = getelementptr inbounds i8, ptr %1, i64 72
  %8 = load ptr, ptr %7, align 8
  %.03134 = load ptr, ptr %6, align 8
  %9 = icmp ne ptr %.03134, null
  %10 = icmp ne ptr %.03134, %1
  %11 = and i1 %9, %10
  br i1 %11, label %.lr.ph, label %._crit_edge.thread

.lr.ph:                                           ; preds = %_ZN22ConditionalMutexLockerC2EP5MutexbNS0_18SafepointCheckFlagE.exit, %20
  %.03136 = phi ptr [ %.031, %20 ], [ %.03134, %_ZN22ConditionalMutexLockerC2EP5MutexbNS0_18SafepointCheckFlagE.exit ]
  %.03035 = phi i32 [ %.1, %20 ], [ 0, %_ZN22ConditionalMutexLockerC2EP5MutexbNS0_18SafepointCheckFlagE.exit ]
  %12 = getelementptr inbounds i8, ptr %.03136, i64 72
  %13 = load ptr, ptr %12, align 8
  %14 = icmp eq ptr %8, %13
  br i1 %14, label %15, label %20

15:                                               ; preds = %.lr.ph
  %16 = getelementptr inbounds i8, ptr %.03136, i64 208
  %17 = load i8, ptr %16, align 8
  %18 = sext i8 %17 to i32
  %19 = tail call noundef i32 @llvm.smax.i32(i32 %.03035, i32 %18)
  br label %20

20:                                               ; preds = %15, %.lr.ph
  %.1 = phi i32 [ %19, %15 ], [ %.03035, %.lr.ph ]
  %21 = getelementptr inbounds i8, ptr %.03136, i64 80
  %.031 = load ptr, ptr %21, align 8
  %22 = icmp ne ptr %.031, null
  %23 = icmp ne ptr %.031, %1
  %24 = and i1 %22, %23
  br i1 %24, label %.lr.ph, label %._crit_edge, !llvm.loop !90

._crit_edge:                                      ; preds = %20
  %25 = icmp eq ptr %.031, %1
  br i1 %25, label %30, label %.thread58

._crit_edge.thread:                               ; preds = %_ZN22ConditionalMutexLockerC2EP5MutexbNS0_18SafepointCheckFlagE.exit
  %26 = icmp eq ptr %.03134, %1
  br i1 %26, label %27, label %.thread58

27:                                               ; preds = %._crit_edge.thread
  %28 = getelementptr inbounds i8, ptr %.03134, i64 80
  %29 = load ptr, ptr %28, align 8
  store ptr %29, ptr %6, align 8
  br label %35

30:                                               ; preds = %._crit_edge
  %31 = getelementptr inbounds i8, ptr %.031, i64 80
  %32 = load ptr, ptr %31, align 8
  %33 = getelementptr inbounds i8, ptr %.03136, i64 80
  store ptr %32, ptr %33, align 8
  br label %35

.thread58:                                        ; preds = %._crit_edge, %._crit_edge.thread
  %.030.lcssa50.ph = phi i32 [ 0, %._crit_edge.thread ], [ %.1, %._crit_edge ]
  %34 = getelementptr inbounds i8, ptr %1, i64 80
  store ptr null, ptr %34, align 8
  br label %._crit_edge44

35:                                               ; preds = %27, %30
  %.030.lcssa50 = phi i32 [ 0, %27 ], [ %.1, %30 ]
  %.0 = phi ptr [ %29, %27 ], [ %32, %30 ]
  %36 = getelementptr inbounds i8, ptr %1, i64 80
  store ptr null, ptr %36, align 8
  %.not39 = icmp eq ptr %.0, null
  br i1 %.not39, label %._crit_edge44, label %.lr.ph43

.lr.ph43:                                         ; preds = %35, %45
  %.241 = phi i32 [ %.3, %45 ], [ %.030.lcssa50, %35 ]
  %.13240 = phi ptr [ %47, %45 ], [ %.0, %35 ]
  %37 = getelementptr inbounds i8, ptr %.13240, i64 72
  %38 = load ptr, ptr %37, align 8
  %39 = icmp eq ptr %8, %38
  br i1 %39, label %40, label %45

40:                                               ; preds = %.lr.ph43
  %41 = getelementptr inbounds i8, ptr %.13240, i64 208
  %42 = load i8, ptr %41, align 8
  %43 = sext i8 %42 to i32
  %44 = tail call noundef i32 @llvm.smax.i32(i32 %.241, i32 %43)
  br label %45

45:                                               ; preds = %40, %.lr.ph43
  %.3 = phi i32 [ %44, %40 ], [ %.241, %.lr.ph43 ]
  %46 = getelementptr inbounds i8, ptr %.13240, i64 80
  %47 = load ptr, ptr %46, align 8
  %.not = icmp eq ptr %47, null
  br i1 %.not, label %._crit_edge44, label %.lr.ph43, !llvm.loop !91

._crit_edge44:                                    ; preds = %45, %.thread58, %35
  %48 = phi i1 [ true, %35 ], [ false, %.thread58 ], [ true, %45 ]
  %.2.lcssa = phi i32 [ %.030.lcssa50, %35 ], [ %.030.lcssa50.ph, %.thread58 ], [ %.3, %45 ]
  tail call void @_ZN6Method26set_highest_osr_comp_levelEi(ptr noundef nonnull align 8 dereferenceable(88) %8, i32 noundef %.2.lcssa) #26
  br i1 %4, label %_ZN22ConditionalMutexLockerD2Ev.exit, label %49

49:                                               ; preds = %._crit_edge44
  tail call void @_ZN5Mutex6unlockEv(ptr noundef nonnull align 8 dereferenceable(104) %3) #26
  br label %_ZN22ConditionalMutexLockerD2Ev.exit

_ZN22ConditionalMutexLockerD2Ev.exit:             ; preds = %._crit_edge44, %49
  ret i1 %48
}